; ModuleID = 'source-C-CXX/33/1163.cpp'
source_filename = "source-C-CXX/33/1163.cpp"
target datalayout = "e-m:e-p270:32:32-p271:32:32-p272:64:64-i64:64-f80:128-n8:16:32:64-S128"
target triple = "x86_64-pc-linux-gnu"

%"class.std::ios_base::Init" = type { i8 }
%"class.std::basic_istream" = type { i32 (...)**, i64, %"class.std::basic_ios" }
%"class.std::basic_ios" = type { %"class.std::ios_base", %"class.std::basic_ostream"*, i8, i8, %"class.std::basic_streambuf"*, %"class.std::ctype"*, %"class.std::num_put"*, %"class.std::num_get"* }
%"class.std::ios_base" = type { i32 (...)**, i64, i64, i32, i32, i32, %"struct.std::ios_base::_Callback_list"*, %"struct.std::ios_base::_Words", [8 x %"struct.std::ios_base::_Words"], i32, %"struct.std::ios_base::_Words"*, %"class.std::locale" }
%"struct.std::ios_base::_Callback_list" = type { %"struct.std::ios_base::_Callback_list"*, void (i32, %"class.std::ios_base"*, i32)*, i32, i32 }
%"struct.std::ios_base::_Words" = type { i8*, i64 }
%"class.std::locale" = type { %"class.std::locale::_Impl"* }
%"class.std::locale::_Impl" = type { i32, %"class.std::locale::facet"**, i64, %"class.std::locale::facet"**, i8** }
%"class.std::locale::facet" = type <{ i32 (...)**, i32, [4 x i8] }>
%"class.std::basic_ostream" = type { i32 (...)**, %"class.std::basic_ios" }
%"class.std::basic_streambuf" = type { i32 (...)**, i8*, i8*, i8*, i8*, i8*, i8*, %"class.std::locale" }
%"class.std::ctype" = type <{ %"class.std::locale::facet.base", [4 x i8], %struct.__locale_struct*, i8, [7 x i8], i32*, i32*, i16*, i8, [256 x i8], [256 x i8], i8, [6 x i8] }>
%"class.std::locale::facet.base" = type <{ i32 (...)**, i32 }>
%struct.__locale_struct = type { [13 x %struct.__locale_data*], i16*, i32*, i32*, [13 x i8*] }
%struct.__locale_data = type opaque
%"class.std::num_put" = type { %"class.std::locale::facet.base", [4 x i8] }
%"class.std::num_get" = type { %"class.std::locale::facet.base", [4 x i8] }

@_ZStL8__ioinit = internal global %"class.std::ios_base::Init" zeroinitializer, align 1
@__dso_handle = external hidden global i8
@_ZSt3cin = external global %"class.std::basic_istream", align 8
@_ZSt4cout = external global %"class.std::basic_ostream", align 8
@.str = private unnamed_addr constant [4 x i8] c"End\00", align 1
@.str.1 = private unnamed_addr constant [2 x i8] c"/\00", align 1
@.str.2 = private unnamed_addr constant [2 x i8] c"=\00", align 1
@.str.3 = private unnamed_addr constant [2 x i8] c"*\00", align 1
@.str.4 = private unnamed_addr constant [2 x i8] c"+\00", align 1
@llvm.global_ctors = appending global [1 x { i32, void ()*, i8* }] [{ i32, void ()*, i8* } { i32 65535, void ()* @_GLOBAL__sub_I_1163.cpp, i8* null }]

declare void @_ZNSt8ios_base4InitC1Ev(%"class.std::ios_base::Init"* nonnull align 1 dereferenceable(1)) unnamed_addr #0

; Function Attrs: nounwind
declare void @_ZNSt8ios_base4InitD1Ev(%"class.std::ios_base::Init"* nonnull align 1 dereferenceable(1)) unnamed_addr #1

; Function Attrs: nofree nounwind
declare i32 @__cxa_atexit(void (i8*)*, i8*, i8*) local_unnamed_addr #2

; Function Attrs: mustprogress norecurse sspstrong uwtable
define dso_local i32 @main() local_unnamed_addr #3 {
  %1 = alloca i32, align 4
  %2 = bitcast i32* %1 to i8*
  call void @llvm.lifetime.start.p0i8(i64 4, i8* nonnull %2) #7
  %3 = call nonnull align 8 dereferenceable(16) %"class.std::basic_istream"* @_ZNSirsERi(%"class.std::basic_istream"* nonnull align 8 dereferenceable(16) @_ZSt3cin, i32* nonnull align 4 dereferenceable(4) %1)
  %4 = load i32, i32* %1, align 4, !tbaa !5
  %5 = icmp eq i32 %4, 1
  br i1 %5, label %6, label %8

6:                                                ; preds = %93, %0
  %7 = call nonnull align 8 dereferenceable(8) %"class.std::basic_ostream"* @_ZSt16__ostream_insertIcSt11char_traitsIcEERSt13basic_ostreamIT_T0_ES6_PKS3_l(%"class.std::basic_ostream"* nonnull align 8 dereferenceable(8) @_ZSt4cout, i8* nonnull getelementptr inbounds ([4 x i8], [4 x i8]* @.str, i64 0, i64 0), i64 3)
  call void @llvm.lifetime.end.p0i8(i64 4, i8* nonnull %2) #7
  ret i32 0

8:                                                ; preds = %0, %93
  %9 = phi i32 [ %94, %93 ], [ %4, %0 ]
  %10 = and i32 %9, 1
  %11 = icmp eq i32 %10, 0
  %12 = call nonnull align 8 dereferenceable(8) %"class.std::basic_ostream"* @_ZNSolsEi(%"class.std::basic_ostream"* nonnull align 8 dereferenceable(8) @_ZSt4cout, i32 %9)
  br i1 %11, label %13, label %51

13:                                               ; preds = %8
  %14 = call nonnull align 8 dereferenceable(8) %"class.std::basic_ostream"* @_ZSt16__ostream_insertIcSt11char_traitsIcEERSt13basic_ostreamIT_T0_ES6_PKS3_l(%"class.std::basic_ostream"* nonnull align 8 dereferenceable(8) %12, i8* nonnull getelementptr inbounds ([2 x i8], [2 x i8]* @.str.1, i64 0, i64 0), i64 1)
  %15 = call nonnull align 8 dereferenceable(8) %"class.std::basic_ostream"* @_ZNSolsEi(%"class.std::basic_ostream"* nonnull align 8 dereferenceable(8) %12, i32 2)
  %16 = call nonnull align 8 dereferenceable(8) %"class.std::basic_ostream"* @_ZSt16__ostream_insertIcSt11char_traitsIcEERSt13basic_ostreamIT_T0_ES6_PKS3_l(%"class.std::basic_ostream"* nonnull align 8 dereferenceable(8) %15, i8* nonnull getelementptr inbounds ([2 x i8], [2 x i8]* @.str.2, i64 0, i64 0), i64 1)
  %17 = load i32, i32* %1, align 4, !tbaa !5
  %18 = sdiv i32 %17, 2
  %19 = call nonnull align 8 dereferenceable(8) %"class.std::basic_ostream"* @_ZNSolsEi(%"class.std::basic_ostream"* nonnull align 8 dereferenceable(8) %15, i32 %18)
  %20 = bitcast %"class.std::basic_ostream"* %19 to i8**
  %21 = load i8*, i8** %20, align 8, !tbaa !9
  %22 = getelementptr i8, i8* %21, i64 -24
  %23 = bitcast i8* %22 to i64*
  %24 = load i64, i64* %23, align 8
  %25 = bitcast %"class.std::basic_ostream"* %19 to i8*
  %26 = add nsw i64 %24, 240
  %27 = getelementptr inbounds i8, i8* %25, i64 %26
  %28 = bitcast i8* %27 to %"class.std::ctype"**
  %29 = load %"class.std::ctype"*, %"class.std::ctype"** %28, align 8, !tbaa !11
  %30 = icmp eq %"class.std::ctype"* %29, null
  br i1 %30, label %31, label %32

31:                                               ; preds = %13
  call void @_ZSt16__throw_bad_castv() #8
  unreachable

32:                                               ; preds = %13
  %33 = getelementptr inbounds %"class.std::ctype", %"class.std::ctype"* %29, i64 0, i32 8
  %34 = load i8, i8* %33, align 8, !tbaa !15
  %35 = icmp eq i8 %34, 0
  br i1 %35, label %39, label %36

36:                                               ; preds = %32
  %37 = getelementptr inbounds %"class.std::ctype", %"class.std::ctype"* %29, i64 0, i32 9, i64 10
  %38 = load i8, i8* %37, align 1, !tbaa !17
  br label %45

39:                                               ; preds = %32
  call void @_ZNKSt5ctypeIcE13_M_widen_initEv(%"class.std::ctype"* nonnull align 8 dereferenceable(570) %29)
  %40 = bitcast %"class.std::ctype"* %29 to i8 (%"class.std::ctype"*, i8)***
  %41 = load i8 (%"class.std::ctype"*, i8)**, i8 (%"class.std::ctype"*, i8)*** %40, align 8, !tbaa !9
  %42 = getelementptr inbounds i8 (%"class.std::ctype"*, i8)*, i8 (%"class.std::ctype"*, i8)** %41, i64 6
  %43 = load i8 (%"class.std::ctype"*, i8)*, i8 (%"class.std::ctype"*, i8)** %42, align 8
  %44 = call signext i8 %43(%"class.std::ctype"* nonnull align 8 dereferenceable(570) %29, i8 signext 10)
  br label %45

45:                                               ; preds = %36, %39
  %46 = phi i8 [ %38, %36 ], [ %44, %39 ]
  %47 = call nonnull align 8 dereferenceable(8) %"class.std::basic_ostream"* @_ZNSo3putEc(%"class.std::basic_ostream"* nonnull align 8 dereferenceable(8) %19, i8 signext %46)
  %48 = call nonnull align 8 dereferenceable(8) %"class.std::basic_ostream"* @_ZNSo5flushEv(%"class.std::basic_ostream"* nonnull align 8 dereferenceable(8) %47)
  %49 = load i32, i32* %1, align 4, !tbaa !5
  %50 = sdiv i32 %49, 2
  br label %93

51:                                               ; preds = %8
  %52 = call nonnull align 8 dereferenceable(8) %"class.std::basic_ostream"* @_ZSt16__ostream_insertIcSt11char_traitsIcEERSt13basic_ostreamIT_T0_ES6_PKS3_l(%"class.std::basic_ostream"* nonnull align 8 dereferenceable(8) %12, i8* nonnull getelementptr inbounds ([2 x i8], [2 x i8]* @.str.3, i64 0, i64 0), i64 1)
  %53 = call nonnull align 8 dereferenceable(8) %"class.std::basic_ostream"* @_ZNSolsEi(%"class.std::basic_ostream"* nonnull align 8 dereferenceable(8) %12, i32 3)
  %54 = call nonnull align 8 dereferenceable(8) %"class.std::basic_ostream"* @_ZSt16__ostream_insertIcSt11char_traitsIcEERSt13basic_ostreamIT_T0_ES6_PKS3_l(%"class.std::basic_ostream"* nonnull align 8 dereferenceable(8) %53, i8* nonnull getelementptr inbounds ([2 x i8], [2 x i8]* @.str.4, i64 0, i64 0), i64 1)
  %55 = call nonnull align 8 dereferenceable(8) %"class.std::basic_ostream"* @_ZNSolsEi(%"class.std::basic_ostream"* nonnull align 8 dereferenceable(8) %53, i32 1)
  %56 = call nonnull align 8 dereferenceable(8) %"class.std::basic_ostream"* @_ZSt16__ostream_insertIcSt11char_traitsIcEERSt13basic_ostreamIT_T0_ES6_PKS3_l(%"class.std::basic_ostream"* nonnull align 8 dereferenceable(8) %55, i8* nonnull getelementptr inbounds ([2 x i8], [2 x i8]* @.str.2, i64 0, i64 0), i64 1)
  %57 = load i32, i32* %1, align 4, !tbaa !5
  %58 = mul nsw i32 %57, 3
  %59 = add nsw i32 %58, 1
  %60 = call nonnull align 8 dereferenceable(8) %"class.std::basic_ostream"* @_ZNSolsEi(%"class.std::basic_ostream"* nonnull align 8 dereferenceable(8) %55, i32 %59)
  %61 = bitcast %"class.std::basic_ostream"* %60 to i8**
  %62 = load i8*, i8** %61, align 8, !tbaa !9
  %63 = getelementptr i8, i8* %62, i64 -24
  %64 = bitcast i8* %63 to i64*
  %65 = load i64, i64* %64, align 8
  %66 = bitcast %"class.std::basic_ostream"* %60 to i8*
  %67 = add nsw i64 %65, 240
  %68 = getelementptr inbounds i8, i8* %66, i64 %67
  %69 = bitcast i8* %68 to %"class.std::ctype"**
  %70 = load %"class.std::ctype"*, %"class.std::ctype"** %69, align 8, !tbaa !11
  %71 = icmp eq %"class.std::ctype"* %70, null
  br i1 %71, label %72, label %73

72:                                               ; preds = %51
  call void @_ZSt16__throw_bad_castv() #8
  unreachable

73:                                               ; preds = %51
  %74 = getelementptr inbounds %"class.std::ctype", %"class.std::ctype"* %70, i64 0, i32 8
  %75 = load i8, i8* %74, align 8, !tbaa !15
  %76 = icmp eq i8 %75, 0
  br i1 %76, label %80, label %77

77:                                               ; preds = %73
  %78 = getelementptr inbounds %"class.std::ctype", %"class.std::ctype"* %70, i64 0, i32 9, i64 10
  %79 = load i8, i8* %78, align 1, !tbaa !17
  br label %86

80:                                               ; preds = %73
  call void @_ZNKSt5ctypeIcE13_M_widen_initEv(%"class.std::ctype"* nonnull align 8 dereferenceable(570) %70)
  %81 = bitcast %"class.std::ctype"* %70 to i8 (%"class.std::ctype"*, i8)***
  %82 = load i8 (%"class.std::ctype"*, i8)**, i8 (%"class.std::ctype"*, i8)*** %81, align 8, !tbaa !9
  %83 = getelementptr inbounds i8 (%"class.std::ctype"*, i8)*, i8 (%"class.std::ctype"*, i8)** %82, i64 6
  %84 = load i8 (%"class.std::ctype"*, i8)*, i8 (%"class.std::ctype"*, i8)** %83, align 8
  %85 = call signext i8 %84(%"class.std::ctype"* nonnull align 8 dereferenceable(570) %70, i8 signext 10)
  br label %86

86:                                               ; preds = %77, %80
  %87 = phi i8 [ %79, %77 ], [ %85, %80 ]
  %88 = call nonnull align 8 dereferenceable(8) %"class.std::basic_ostream"* @_ZNSo3putEc(%"class.std::basic_ostream"* nonnull align 8 dereferenceable(8) %60, i8 signext %87)
  %89 = call nonnull align 8 dereferenceable(8) %"class.std::basic_ostream"* @_ZNSo5flushEv(%"class.std::basic_ostream"* nonnull align 8 dereferenceable(8) %88)
  %90 = load i32, i32* %1, align 4, !tbaa !5
  %91 = mul nsw i32 %90, 3
  %92 = add nsw i32 %91, 1
  br label %93

93:                                               ; preds = %45, %86
  %94 = phi i32 [ %92, %86 ], [ %50, %45 ]
  store i32 %94, i32* %1, align 4, !tbaa !5
  %95 = icmp eq i32 %94, 1
  br i1 %95, label %6, label %8, !llvm.loop !18
}

; Function Attrs: argmemonly mustprogress nofree nosync nounwind willreturn
declare void @llvm.lifetime.start.p0i8(i64 immarg, i8* nocapture) #4

declare nonnull align 8 dereferenceable(16) %"class.std::basic_istream"* @_ZNSirsERi(%"class.std::basic_istream"* nonnull align 8 dereferenceable(16), i32* nonnull align 4 dereferenceable(4)) local_unnamed_addr #0

declare nonnull align 8 dereferenceable(8) %"class.std::basic_ostream"* @_ZNSolsEi(%"class.std::basic_ostream"* nonnull align 8 dereferenceable(8), i32) local_unnamed_addr #0

; Function Attrs: argmemonly mustprogress nofree nosync nounwind willreturn
declare void @llvm.lifetime.end.p0i8(i64 immarg, i8* nocapture) #4

declare nonnull align 8 dereferenceable(8) %"class.std::basic_ostream"* @_ZSt16__ostream_insertIcSt11char_traitsIcEERSt13basic_ostreamIT_T0_ES6_PKS3_l(%"class.std::basic_ostream"* nonnull align 8 dereferenceable(8), i8*, i64) local_unnamed_addr #0

declare nonnull align 8 dereferenceable(8) %"class.std::basic_ostream"* @_ZNSo3putEc(%"class.std::basic_ostream"* nonnull align 8 dereferenceable(8), i8 signext) local_unnamed_addr #0

declare nonnull align 8 dereferenceable(8) %"class.std::basic_ostream"* @_ZNSo5flushEv(%"class.std::basic_ostream"* nonnull align 8 dereferenceable(8)) local_unnamed_addr #0

; Function Attrs: noreturn
declare void @_ZSt16__throw_bad_castv() local_unnamed_addr #5

declare void @_ZNKSt5ctypeIcE13_M_widen_initEv(%"class.std::ctype"* nonnull align 8 dereferenceable(570)) local_unnamed_addr #0

; Function Attrs: sspstrong uwtable
define internal void @_GLOBAL__sub_I_1163.cpp() #6 section ".text.startup" {
  tail call void @_ZNSt8ios_base4InitC1Ev(%"class.std::ios_base::Init"* nonnull align 1 dereferenceable(1) @_ZStL8__ioinit)
  %1 = tail call i32 @__cxa_atexit(void (i8*)* bitcast (void (%"class.std::ios_base::Init"*)* @_ZNSt8ios_base4InitD1Ev to void (i8*)*), i8* getelementptr inbounds (%"class.std::ios_base::Init", %"class.std::ios_base::Init"* @_ZStL8__ioinit, i64 0, i32 0), i8* nonnull @__dso_handle) #7
  ret void
}


!llvm.module.flags = !{!0, !1, !2, !3}
!llvm.ident = !{!4}

!0 = !{i32 1, !"wchar_size", i32 4}
!1 = !{i32 7, !"PIC Level", i32 2}
!2 = !{i32 7, !"PIE Level", i32 2}
!3 = !{i32 7, !"uwtable", i32 1}
!4 = !{!"clang version 13.0.0"}
!5 = !{!6, !6, i64 0}
!6 = !{!"int", !7, i64 0}
!7 = !{!"omnipotent char", !8, i64 0}
!8 = !{!"Simple C++ TBAA"}
!9 = !{!10, !10, i64 0}
!10 = !{!"vtable pointer", !8, i64 0}
!11 = !{!12, !13, i64 240}
!12 = !{!"_ZTSSt9basic_iosIcSt11char_traitsIcEE", !13, i64 216, !7, i64 224, !14, i64 225, !13, i64 232, !13, i64 240, !13, i64 248, !13, i64 256}
!13 = !{!"any pointer", !7, i64 0}
!14 = !{!"bool", !7, i64 0}
!15 = !{!16, !7, i64 56}
!16 = !{!"_ZTSSt5ctypeIcE", !13, i64 16, !14, i64 24, !13, i64 32, !13, i64 40, !13, i64 48, !7, i64 56, !7, i64 57, !7, i64 313, !7, i64 569}
!17 = !{!7, !7, i64 0}
!18 = distinct !{!18, !19}
!19 = !{!"llvm.loop.mustprogress"}
